; Function Attrs: nounwind uwtable
define ptr @l_Lean_PersistentHashMap_insert___at_Lean_Meta_SimpTheorems_eraseCore___spec__4(ptr noundef %0, ptr noundef %1, ptr noundef %2) local_unnamed_addr #1 {
  %4 = ptrtoint ptr %1 to i64
  %5 = and i64 %4, 1
  %.not.i46 = icmp eq i64 %5, 0
  br i1 %.not.i46, label %9, label %6

6:                                                ; preds = %3
  %7 = lshr i64 %4, 1
  %8 = trunc i64 %7 to i32
  br label %lean_obj_tag.exit

9:                                                ; preds = %3
  %10 = getelementptr i8, ptr %1, i64 4
  %.val.i = load i32, ptr %10, align 4
  %11 = lshr i32 %.val.i, 24
  br label %lean_obj_tag.exit

lean_obj_tag.exit:                                ; preds = %6, %9
  %.0.i = phi i32 [ %8, %6 ], [ %11, %9 ]
  %12 = icmp eq i32 %.0.i, 0
  %13 = getelementptr inbounds nuw i8, ptr %1, i64 8
  br i1 %12, label %14, label %57

14:                                               ; preds = %lean_obj_tag.exit
  %15 = getelementptr inbounds nuw i8, ptr %1, i64 17
  %16 = load i8, ptr %15, align 1, !tbaa !14
  %17 = icmp eq i8 %16, 0
  %18 = load ptr, ptr %13, align 8, !tbaa !9
  %19 = ptrtoint ptr %18 to i64
  %20 = and i64 %19, 1
  %.not53 = icmp eq i64 %20, 0
  br i1 %17, label %21, label %39

21:                                               ; preds = %14
  br i1 %.not53, label %22, label %lean_inc.exit39

22:                                               ; preds = %21
  %.val.i47 = load i32, ptr %18, align 4, !tbaa !4
  %23 = icmp sgt i32 %.val.i47, 0
  br i1 %23, label %24, label %26, !prof !11

24:                                               ; preds = %22
  %25 = add nuw i32 %.val.i47, 1
  store i32 %25, ptr %18, align 4, !tbaa !4
  br label %29

26:                                               ; preds = %22
  %.not.i48 = icmp eq i32 %.val.i47, 0
  br i1 %.not.i48, label %29, label %27

27:                                               ; preds = %26
  tail call void @lean_inc_ref_cold(ptr noundef nonnull %18) #6
  br label %29

lean_inc.exit39:                                  ; preds = %21
  %28 = tail call i64 @l_Lean_Name_hash___override(ptr noundef %18) #6
  br label %lean_dec.exit41

29:                                               ; preds = %27, %26, %24
  %30 = tail call i64 @l_Lean_Name_hash___override(ptr noundef nonnull %18) #6
  %31 = load i32, ptr %18, align 4, !tbaa !4
  %32 = icmp sgt i32 %31, 1
  br i1 %32, label %33, label %35, !prof !11

33:                                               ; preds = %29
  %34 = add nsw i32 %31, -1
  store i32 %34, ptr %18, align 4, !tbaa !4
  br label %lean_dec.exit41

35:                                               ; preds = %29
  %.not.i = icmp eq i32 %31, 0
  br i1 %.not.i, label %lean_dec.exit41, label %36

36:                                               ; preds = %35
  tail call void @lean_dec_ref_cold(ptr noundef nonnull %18) #6
  br label %lean_dec.exit41

lean_dec.exit41:                                  ; preds = %36, %35, %33, %lean_inc.exit39
  %37 = phi i64 [ %28, %lean_inc.exit39 ], [ %30, %33 ], [ %30, %35 ], [ %30, %36 ]
  %38 = tail call i64 @lean_uint64_mix_hash(i64 noundef %37, i64 noundef 13) #6
  br label %lean_dec.exit

39:                                               ; preds = %14
  br i1 %.not53, label %40, label %lean_inc.exit

40:                                               ; preds = %39
  %.val.i49 = load i32, ptr %18, align 4, !tbaa !4
  %41 = icmp sgt i32 %.val.i49, 0
  br i1 %41, label %42, label %44, !prof !11

42:                                               ; preds = %40
  %43 = add nuw i32 %.val.i49, 1
  store i32 %43, ptr %18, align 4, !tbaa !4
  br label %47

44:                                               ; preds = %40
  %.not.i50 = icmp eq i32 %.val.i49, 0
  br i1 %.not.i50, label %47, label %45

45:                                               ; preds = %44
  tail call void @lean_inc_ref_cold(ptr noundef nonnull %18) #6
  br label %47

lean_inc.exit:                                    ; preds = %39
  %46 = tail call i64 @l_Lean_Name_hash___override(ptr noundef %18) #6
  br label %lean_dec.exit40

47:                                               ; preds = %45, %44, %42
  %48 = tail call i64 @l_Lean_Name_hash___override(ptr noundef nonnull %18) #6
  %49 = load i32, ptr %18, align 4, !tbaa !4
  %50 = icmp sgt i32 %49, 1
  br i1 %50, label %51, label %53, !prof !11

51:                                               ; preds = %47
  %52 = add nsw i32 %49, -1
  store i32 %52, ptr %18, align 4, !tbaa !4
  br label %lean_dec.exit40

53:                                               ; preds = %47
  %.not.i42 = icmp eq i32 %49, 0
  br i1 %.not.i42, label %lean_dec.exit40, label %54

54:                                               ; preds = %53
  tail call void @lean_dec_ref_cold(ptr noundef nonnull %18) #6
  br label %lean_dec.exit40

lean_dec.exit40:                                  ; preds = %54, %53, %51, %lean_inc.exit
  %55 = phi i64 [ %46, %lean_inc.exit ], [ %48, %51 ], [ %48, %53 ], [ %48, %54 ]
  %56 = tail call i64 @lean_uint64_mix_hash(i64 noundef %55, i64 noundef 11) #6
  br label %lean_dec.exit

57:                                               ; preds = %lean_obj_tag.exit
  %58 = load ptr, ptr %13, align 8, !tbaa !9
  %59 = ptrtoint ptr %58 to i64
  %60 = and i64 %59, 1
  %.not.i52 = icmp eq i64 %60, 0
  br i1 %.not.i52, label %61, label %l_Lean_Meta_Origin_key.exit

61:                                               ; preds = %57
  %.val.i.i = load i32, ptr %58, align 4, !tbaa !4
  %62 = icmp sgt i32 %.val.i.i, 0
  br i1 %62, label %63, label %65, !prof !11

63:                                               ; preds = %61
  %64 = add nuw i32 %.val.i.i, 1
  store i32 %64, ptr %58, align 4, !tbaa !4
  br label %68

65:                                               ; preds = %61
  %.not.i.i = icmp eq i32 %.val.i.i, 0
  br i1 %.not.i.i, label %68, label %66

66:                                               ; preds = %65
  tail call void @lean_inc_ref_cold(ptr noundef nonnull %58) #6
  br label %68

l_Lean_Meta_Origin_key.exit:                      ; preds = %57
  %67 = tail call i64 @l_Lean_Name_hash___override(ptr noundef %58) #6
  br label %lean_dec.exit

68:                                               ; preds = %63, %65, %66
  %69 = tail call i64 @l_Lean_Name_hash___override(ptr noundef nonnull %58) #6
  %70 = load i32, ptr %58, align 4, !tbaa !4
  %71 = icmp sgt i32 %70, 1
  br i1 %71, label %72, label %74, !prof !11

72:                                               ; preds = %68
  %73 = add nsw i32 %70, -1
  store i32 %73, ptr %58, align 4, !tbaa !4
  br label %lean_dec.exit

74:                                               ; preds = %68
  %.not.i44 = icmp eq i32 %70, 0
  br i1 %.not.i44, label %lean_dec.exit, label %75

75:                                               ; preds = %74
  tail call void @lean_dec_ref_cold(ptr noundef nonnull %58) #6
  br label %lean_dec.exit

lean_dec.exit:                                    ; preds = %l_Lean_Meta_Origin_key.exit, %72, %74, %75, %lean_dec.exit41, %lean_dec.exit40
  %.sink = phi i64 [ %38, %lean_dec.exit41 ], [ %56, %lean_dec.exit40 ], [ %67, %l_Lean_Meta_Origin_key.exit ], [ %69, %72 ], [ %69, %74 ], [ %69, %75 ]
  %76 = tail call ptr @l_Lean_PersistentHashMap_insertAux___at_Lean_Meta_SimpTheorems_eraseCore___spec__5(ptr noundef %0, i64 noundef %.sink, i64 noundef 1, ptr noundef nonnull %1, ptr noundef %2)
  ret ptr %76
}